; Function Attrs: mustprogress nofree norecurse nosync nounwind willreturn memory(write, argmem: readwrite, inaccessiblemem: none) uwtable
define dso_local void @_ZN13V3GraphVertexC2EP7V3Graph(ptr noundef nonnull align 8 dereferenceable(80) initializes((0, 80)) %0, ptr noundef captures(none) %1) unnamed_addr #3 align 2 personality ptr @__gxx_personality_v0 {
  store ptr getelementptr inbounds nuw inrange(-16, 104) (i8, ptr @_ZTV13V3GraphVertex, i64 16), ptr %0, align 8, !tbaa !4
  %3 = getelementptr inbounds nuw i8, ptr %0, i64 8
  %4 = getelementptr inbounds nuw i8, ptr %1, i64 8
  %5 = getelementptr inbounds nuw i8, ptr %1, i64 16
  tail call void @llvm.memset.p0.i64(ptr noundef nonnull align 8 dereferenceable(72) %3, i8 0, i64 72, i1 false)
  %6 = load ptr, ptr %5, align 8, !tbaa !21
  %7 = getelementptr inbounds nuw i8, ptr %0, i64 16
  store ptr %6, ptr %7, align 8, !tbaa !23
  %.not.i = icmp eq ptr %6, null
  br i1 %.not.i, label %10, label %8

8:                                                ; preds = %2
  %9 = getelementptr inbounds nuw i8, ptr %6, i64 8
  store ptr %0, ptr %9, align 8, !tbaa !24
  br label %10

10:                                               ; preds = %8, %2
  store ptr %0, ptr %5, align 8, !tbaa !21
  %11 = load ptr, ptr %4, align 8, !tbaa !25
  %.not6.i = icmp eq ptr %11, null
  br i1 %.not6.i, label %12, label %_ZN6V3ListI13V3GraphVertexXadL_ZNS0_5linksEvEES0_E8linkBackEPKS0_.exit

12:                                               ; preds = %10
  store ptr %0, ptr %4, align 8, !tbaa !25
  br label %_ZN6V3ListI13V3GraphVertexXadL_ZNS0_5linksEvEES0_E8linkBackEPKS0_.exit

_ZN6V3ListI13V3GraphVertexXadL_ZNS0_5linksEvEES0_E8linkBackEPKS0_.exit: ; preds = %12, %10
  ret void
}